target datalayout = "e-m:e-p270:32:32-p271:32:32-p272:64:64-i64:64-i128:128-f80:128-n8:16:32:64-S128"
target triple = "x86_64-pc-linux-gnu"

%struct.Nwk_Grf_t_ = type { i32, i32, i32, ptr, ptr, i32, i32, ptr, ptr, [17 x i32], [17 x i32], ptr, ptr, ptr, i32, i32 }
%struct.Nwk_Vrt_t_ = type { i32, i32, i32, i32, [0 x i32] }

; Function Attrs: nounwind uwtable
define ptr @Nwk_ManGraphListFindMinEdge(ptr noundef %0, ptr noundef %1) #0 {
  %3 = alloca ptr, align 8
  %4 = alloca ptr, align 8
  %5 = alloca ptr, align 8
  %6 = alloca ptr, align 8
  %7 = alloca i32, align 4
  store ptr %0, ptr %3, align 8, !tbaa !7
  store ptr %1, ptr %4, align 8, !tbaa !52
  call void @llvm.lifetime.start.p0(i64 8, ptr %5) #11
  call void @llvm.lifetime.start.p0(i64 8, ptr %6) #11
  store ptr null, ptr %6, align 8, !tbaa !52
  call void @llvm.lifetime.start.p0(i64 4, ptr %7) #11
  store i32 0, ptr %7, align 4, !tbaa !3
  br label %8

8:                                                ; preds = %43, %2
  %9 = load i32, ptr %7, align 4, !tbaa !3
  %10 = load ptr, ptr %4, align 8, !tbaa !52
  %11 = getelementptr inbounds nuw %struct.Nwk_Vrt_t_, ptr %10, i32 0, i32 3
  %12 = load i32, ptr %11, align 4, !tbaa !57
  %13 = icmp slt i32 %9, %12
  br i1 %13, label %14, label %27

14:                                               ; preds = %8
  %15 = load ptr, ptr %3, align 8, !tbaa !7
  %16 = getelementptr inbounds nuw %struct.Nwk_Grf_t_, ptr %15, i32 0, i32 7
  %17 = load ptr, ptr %16, align 8, !tbaa !31
  %18 = load ptr, ptr %4, align 8, !tbaa !52
  %19 = getelementptr inbounds nuw %struct.Nwk_Vrt_t_, ptr %18, i32 0, i32 4
  %20 = load i32, ptr %7, align 4, !tbaa !3
  %21 = sext i32 %20 to i64
  %22 = getelementptr inbounds [0 x i32], ptr %19, i64 0, i64 %21
  %23 = load i32, ptr %22, align 4, !tbaa !3
  %24 = sext i32 %23 to i64
  %25 = getelementptr inbounds ptr, ptr %17, i64 %24
  %26 = load ptr, ptr %25, align 8, !tbaa !52
  store ptr %26, ptr %5, align 8, !tbaa !52
  br label %27

27:                                               ; preds = %14, %8
  %28 = phi i1 [ false, %8 ], [ true, %14 ]
  br i1 %28, label %29, label %46

29:                                               ; preds = %27
  %30 = load ptr, ptr %6, align 8, !tbaa !52
  %31 = icmp eq ptr %30, null
  br i1 %31, label %40, label %32

32:                                               ; preds = %29
  %33 = load ptr, ptr %6, align 8, !tbaa !52
  %34 = getelementptr inbounds nuw %struct.Nwk_Vrt_t_, ptr %33, i32 0, i32 3
  %35 = load i32, ptr %34, align 4, !tbaa !57
  %36 = load ptr, ptr %5, align 8, !tbaa !52
  %37 = getelementptr inbounds nuw %struct.Nwk_Vrt_t_, ptr %36, i32 0, i32 3
  %38 = load i32, ptr %37, align 4, !tbaa !57
  %39 = icmp sgt i32 %35, %38
  br i1 %39, label %40, label %42

40:                                               ; preds = %32, %29
  %41 = load ptr, ptr %5, align 8, !tbaa !52
  store ptr %41, ptr %6, align 8, !tbaa !52
  br label %42

42:                                               ; preds = %40, %32
  br label %43

43:                                               ; preds = %42
  %44 = load i32, ptr %7, align 4, !tbaa !3
  %45 = add nsw i32 %44, 1
  store i32 %45, ptr %7, align 4, !tbaa !3
  br label %8, !llvm.loop !74

46:                                               ; preds = %27
  %47 = load ptr, ptr %6, align 8, !tbaa !52
  call void @llvm.lifetime.end.p0(i64 4, ptr %7) #11
  call void @llvm.lifetime.end.p0(i64 8, ptr %6) #11
  call void @llvm.lifetime.end.p0(i64 8, ptr %5) #11
  ret ptr %47
}

; Function Attrs: nounwind uwtable
define ptr @Nwk_ManGraphListFindMin(ptr noundef %0, i32 noundef %1) #0 {
  %3 = alloca ptr, align 8
  %4 = alloca i32, align 4
  %5 = alloca ptr, align 8
  %6 = alloca ptr, align 8
  %7 = alloca i32, align 4
  %8 = alloca i32, align 4
  %9 = alloca i32, align 4
  store ptr %0, ptr %3, align 8, !tbaa !7
  store i32 %1, ptr %4, align 4, !tbaa !3
  call void @llvm.lifetime.start.p0(i64 8, ptr %5) #11
  call void @llvm.lifetime.start.p0(i64 8, ptr %6) #11
  store ptr null, ptr %6, align 8, !tbaa !52
  call void @llvm.lifetime.start.p0(i64 4, ptr %7) #11
  call void @llvm.lifetime.start.p0(i64 4, ptr %8) #11
  store i32 10000, ptr %8, align 4, !tbaa !3
  call void @llvm.lifetime.start.p0(i64 4, ptr %9) #11
  store i32 1000000, ptr %9, align 4, !tbaa !3
  %10 = load i32, ptr %4, align 4, !tbaa !3
  %11 = icmp ne i32 %10, 0
  br i1 %11, label %12, label %20

12:                                               ; preds = %2
  %13 = load ptr, ptr %3, align 8, !tbaa !7
  %14 = getelementptr inbounds nuw %struct.Nwk_Grf_t_, ptr %13, i32 0, i32 7
  %15 = load ptr, ptr %14, align 8, !tbaa !31
  %16 = load i32, ptr %4, align 4, !tbaa !3
  %17 = sext i32 %16 to i64
  %18 = getelementptr inbounds ptr, ptr %15, i64 %17
  %19 = load ptr, ptr %18, align 8, !tbaa !52
  br label %21

20:                                               ; preds = %2
  br label %21

21:                                               ; preds = %20, %12
  %22 = phi ptr [ %19, %12 ], [ null, %20 ]
  store ptr %22, ptr %5, align 8, !tbaa !52
  br label %23

23:                                               ; preds = %95, %21
  %24 = load ptr, ptr %5, align 8, !tbaa !52
  %25 = icmp ne ptr %24, null
  br i1 %25, label %26, label %97

26:                                               ; preds = %23
  store i32 0, ptr %7, align 4, !tbaa !3
  br label %27

27:                                               ; preds = %70, %26
  %28 = load i32, ptr %7, align 4, !tbaa !3
  %29 = load ptr, ptr %5, align 8, !tbaa !52
  %30 = getelementptr inbounds nuw %struct.Nwk_Vrt_t_, ptr %29, i32 0, i32 3
  %31 = load i32, ptr %30, align 4, !tbaa !57
  %32 = icmp slt i32 %28, %31
  br i1 %32, label %33, label %73

33:                                               ; preds = %27
  %34 = load ptr, ptr %6, align 8, !tbaa !52
  %35 = icmp eq ptr %34, null
  br i1 %35, label %53, label %36

36:                                               ; preds = %33
  %37 = load i32, ptr %9, align 4, !tbaa !3
  %38 = load ptr, ptr %3, align 8, !tbaa !7
  %39 = getelementptr inbounds nuw %struct.Nwk_Grf_t_, ptr %38, i32 0, i32 7
  %40 = load ptr, ptr %39, align 8, !tbaa !31
  %41 = load ptr, ptr %5, align 8, !tbaa !52
  %42 = getelementptr inbounds nuw %struct.Nwk_Vrt_t_, ptr %41, i32 0, i32 4
  %43 = load i32, ptr %7, align 4, !tbaa !3
  %44 = sext i32 %43 to i64
  %45 = getelementptr inbounds [0 x i32], ptr %42, i64 0, i64 %44
  %46 = load i32, ptr %45, align 4, !tbaa !3
  %47 = sext i32 %46 to i64
  %48 = getelementptr inbounds ptr, ptr %40, i64 %47
  %49 = load ptr, ptr %48, align 8, !tbaa !52
  %50 = getelementptr inbounds nuw %struct.Nwk_Vrt_t_, ptr %49, i32 0, i32 3
  %51 = load i32, ptr %50, align 4, !tbaa !57
  %52 = icmp sgt i32 %37, %51
  br i1 %52, label %53, label %69

53:                                               ; preds = %36, %33
  %54 = load ptr, ptr %3, align 8, !tbaa !7
  %55 = getelementptr inbounds nuw %struct.Nwk_Grf_t_, ptr %54, i32 0, i32 7
  %56 = load ptr, ptr %55, align 8, !tbaa !31
  %57 = load ptr, ptr %5, align 8, !tbaa !52
  %58 = getelementptr inbounds nuw %struct.Nwk_Vrt_t_, ptr %57, i32 0, i32 4
  %59 = load i32, ptr %7, align 4, !tbaa !3
  %60 = sext i32 %59 to i64
  %61 = getelementptr inbounds [0 x i32], ptr %58, i64 0, i64 %60
  %62 = load i32, ptr %61, align 4, !tbaa !3
  %63 = sext i32 %62 to i64
  %64 = getelementptr inbounds ptr, ptr %56, i64 %63
  %65 = load ptr, ptr %64, align 8, !tbaa !52
  %66 = getelementptr inbounds nuw %struct.Nwk_Vrt_t_, ptr %65, i32 0, i32 3
  %67 = load i32, ptr %66, align 4, !tbaa !57
  store i32 %67, ptr %9, align 4, !tbaa !3
  %68 = load ptr, ptr %5, align 8, !tbaa !52
  store ptr %68, ptr %6, align 8, !tbaa !52
  br label %69

69:                                               ; preds = %53, %36
  br label %70

70:                                               ; preds = %69
  %71 = load i32, ptr %7, align 4, !tbaa !3
  %72 = add nsw i32 %71, 1
  store i32 %72, ptr %7, align 4, !tbaa !3
  br label %27, !llvm.loop !75

73:                                               ; preds = %27
  %74 = load i32, ptr %8, align 4, !tbaa !3
  %75 = add nsw i32 %74, -1
  store i32 %75, ptr %8, align 4, !tbaa !3
  %76 = icmp eq i32 %75, 0
  br i1 %76, label %77, label %78

77:                                               ; preds = %73
  br label %97

78:                                               ; preds = %73
  br label %79

79:                                               ; preds = %78
  %80 = load ptr, ptr %5, align 8, !tbaa !52
  %81 = getelementptr inbounds nuw %struct.Nwk_Vrt_t_, ptr %80, i32 0, i32 2
  %82 = load i32, ptr %81, align 4, !tbaa !72
  %83 = icmp ne i32 %82, 0
  br i1 %83, label %84, label %94

84:                                               ; preds = %79
  %85 = load ptr, ptr %3, align 8, !tbaa !7
  %86 = getelementptr inbounds nuw %struct.Nwk_Grf_t_, ptr %85, i32 0, i32 7
  %87 = load ptr, ptr %86, align 8, !tbaa !31
  %88 = load ptr, ptr %5, align 8, !tbaa !52
  %89 = getelementptr inbounds nuw %struct.Nwk_Vrt_t_, ptr %88, i32 0, i32 2
  %90 = load i32, ptr %89, align 4, !tbaa !72
  %91 = sext i32 %90 to i64
  %92 = getelementptr inbounds ptr, ptr %87, i64 %91
  %93 = load ptr, ptr %92, align 8, !tbaa !52
  br label %95

94:                                               ; preds = %79
  br label %95

95:                                               ; preds = %94, %84
  %96 = phi ptr [ %93, %84 ], [ null, %94 ]
  store ptr %96, ptr %5, align 8, !tbaa !52
  br label %23, !llvm.loop !76

97:                                               ; preds = %77, %23
  %98 = load ptr, ptr %6, align 8, !tbaa !52
  call void @llvm.lifetime.end.p0(i64 4, ptr %9) #11
  call void @llvm.lifetime.end.p0(i64 4, ptr %8) #11
  call void @llvm.lifetime.end.p0(i64 4, ptr %7) #11
  call void @llvm.lifetime.end.p0(i64 8, ptr %6) #11
  call void @llvm.lifetime.end.p0(i64 8, ptr %5) #11
  ret ptr %98
}

; Function Attrs: nounwind uwtable
define void @Nwk_ManGraphSolve(ptr noundef %0) #0 {
  %2 = alloca ptr, align 8
  %3 = alloca ptr, align 8
  %4 = alloca ptr, align 8
  %5 = alloca i32, align 4
  %6 = alloca i32, align 4
  store ptr %0, ptr %2, align 8, !tbaa !7
  call void @llvm.lifetime.start.p0(i64 8, ptr %3) #11
  call void @llvm.lifetime.start.p0(i64 8, ptr %4) #11
  call void @llvm.lifetime.start.p0(i64 4, ptr %5) #11
  call void @llvm.lifetime.start.p0(i64 4, ptr %6) #11
  %7 = load ptr, ptr %2, align 8, !tbaa !7
  call void @Nwk_ManGraphPrepare(ptr noundef %7)
  br label %8

8:                                                ; preds = %90, %54, %1
  br label %9

9:                                                ; preds = %8
  store i32 1, ptr %5, align 4, !tbaa !3
  br label %10

10:                                               ; preds = %48, %9
  %11 = load i32, ptr %5, align 4, !tbaa !3
  %12 = icmp sle i32 %11, 16
  br i1 %12, label %13, label %51

13:                                               ; preds = %10
  %14 = load ptr, ptr %2, align 8, !tbaa !7
  %15 = getelementptr inbounds nuw %struct.Nwk_Grf_t_, ptr %14, i32 0, i32 9
  %16 = load i32, ptr %5, align 4, !tbaa !3
  %17 = sext i32 %16 to i64
  %18 = getelementptr inbounds [17 x i32], ptr %15, i64 0, i64 %17
  %19 = load i32, ptr %18, align 4, !tbaa !3
  %20 = icmp ne i32 %19, 0
  br i1 %20, label %21, label %47

21:                                               ; preds = %13
  %22 = load ptr, ptr %2, align 8, !tbaa !7
  %23 = getelementptr inbounds nuw %struct.Nwk_Grf_t_, ptr %22, i32 0, i32 7
  %24 = load ptr, ptr %23, align 8, !tbaa !31
  %25 = load ptr, ptr %2, align 8, !tbaa !7
  %26 = getelementptr inbounds nuw %struct.Nwk_Grf_t_, ptr %25, i32 0, i32 9
  %27 = load i32, ptr %5, align 4, !tbaa !3
  %28 = sext i32 %27 to i64
  %29 = getelementptr inbounds [17 x i32], ptr %26, i64 0, i64 %28
  %30 = load i32, ptr %29, align 4, !tbaa !3
  %31 = sext i32 %30 to i64
  %32 = getelementptr inbounds ptr, ptr %24, i64 %31
  %33 = load ptr, ptr %32, align 8, !tbaa !52
  store ptr %33, ptr %3, align 8, !tbaa !52
  %34 = load ptr, ptr %2, align 8, !tbaa !7
  %35 = getelementptr inbounds nuw %struct.Nwk_Grf_t_, ptr %34, i32 0, i32 7
  %36 = load ptr, ptr %35, align 8, !tbaa !31
  %37 = load ptr, ptr %3, align 8, !tbaa !52
  %38 = getelementptr inbounds nuw %struct.Nwk_Vrt_t_, ptr %37, i32 0, i32 4
  %39 = getelementptr inbounds [0 x i32], ptr %38, i64 0, i64 0
  %40 = load i32, ptr %39, align 4, !tbaa !3
  %41 = sext i32 %40 to i64
  %42 = getelementptr inbounds ptr, ptr %36, i64 %41
  %43 = load ptr, ptr %42, align 8, !tbaa !52
  store ptr %43, ptr %4, align 8, !tbaa !52
  %44 = load ptr, ptr %2, align 8, !tbaa !7
  %45 = load ptr, ptr %3, align 8, !tbaa !52
  %46 = load ptr, ptr %4, align 8, !tbaa !52
  call void @Nwk_ManGraphUpdate(ptr noundef %44, ptr noundef %45, ptr noundef %46)
  br label %51

47:                                               ; preds = %13
  br label %48

48:                                               ; preds = %47
  %49 = load i32, ptr %5, align 4, !tbaa !3
  %50 = add nsw i32 %49, 1
  store i32 %50, ptr %5, align 4, !tbaa !3
  br label %10, !llvm.loop !77

51:                                               ; preds = %21, %10
  %52 = load i32, ptr %5, align 4, !tbaa !3
  %53 = icmp slt i32 %52, 17
  br i1 %53, label %54, label %55

54:                                               ; preds = %51
  br label %8

55:                                               ; preds = %51
  store i32 2, ptr %6, align 4, !tbaa !3
  br label %56

56:                                               ; preds = %83, %55
  %57 = load i32, ptr %6, align 4, !tbaa !3
  %58 = icmp sle i32 %57, 16
  br i1 %58, label %59, label %86

59:                                               ; preds = %56
  %60 = load ptr, ptr %2, align 8, !tbaa !7
  %61 = getelementptr inbounds nuw %struct.Nwk_Grf_t_, ptr %60, i32 0, i32 10
  %62 = load i32, ptr %6, align 4, !tbaa !3
  %63 = sext i32 %62 to i64
  %64 = getelementptr inbounds [17 x i32], ptr %61, i64 0, i64 %63
  %65 = load i32, ptr %64, align 4, !tbaa !3
  %66 = icmp ne i32 %65, 0
  br i1 %66, label %67, label %82

67:                                               ; preds = %59
  %68 = load ptr, ptr %2, align 8, !tbaa !7
  %69 = load ptr, ptr %2, align 8, !tbaa !7
  %70 = getelementptr inbounds nuw %struct.Nwk_Grf_t_, ptr %69, i32 0, i32 10
  %71 = load i32, ptr %6, align 4, !tbaa !3
  %72 = sext i32 %71 to i64
  %73 = getelementptr inbounds [17 x i32], ptr %70, i64 0, i64 %72
  %74 = load i32, ptr %73, align 4, !tbaa !3
  %75 = call ptr @Nwk_ManGraphListFindMin(ptr noundef %68, i32 noundef %74)
  store ptr %75, ptr %3, align 8, !tbaa !52
  %76 = load ptr, ptr %2, align 8, !tbaa !7
  %77 = load ptr, ptr %3, align 8, !tbaa !52
  %78 = call ptr @Nwk_ManGraphListFindMinEdge(ptr noundef %76, ptr noundef %77)
  store ptr %78, ptr %4, align 8, !tbaa !52
  %79 = load ptr, ptr %2, align 8, !tbaa !7
  %80 = load ptr, ptr %3, align 8, !tbaa !52
  %81 = load ptr, ptr %4, align 8, !tbaa !52
  call void @Nwk_ManGraphUpdate(ptr noundef %79, ptr noundef %80, ptr noundef %81)
  br label %86

82:                                               ; preds = %59
  br label %83

83:                                               ; preds = %82
  %84 = load i32, ptr %6, align 4, !tbaa !3
  %85 = add nsw i32 %84, 1
  store i32 %85, ptr %6, align 4, !tbaa !3
  br label %56, !llvm.loop !78

86:                                               ; preds = %67, %56
  %87 = load i32, ptr %6, align 4, !tbaa !3
  %88 = icmp eq i32 %87, 17
  br i1 %88, label %89, label %90

89:                                               ; preds = %86
  br label %91

90:                                               ; preds = %86
  br label %8

91:                                               ; preds = %89
  %92 = load ptr, ptr %2, align 8, !tbaa !7
  call void @Nwk_ManGraphSortPairs(ptr noundef %92)
  call void @llvm.lifetime.end.p0(i64 4, ptr %6) #11
  call void @llvm.lifetime.end.p0(i64 4, ptr %5) #11
  call void @llvm.lifetime.end.p0(i64 8, ptr %4) #11
  call void @llvm.lifetime.end.p0(i64 8, ptr %3) #11
  ret void
}