; Function Attrs: nounwind uwtable
define void @Nwk_ManGraphSolve(ptr noundef captures(none) initializes((200, 216)) %0) local_unnamed_addr #0 {
  tail call void @Nwk_ManGraphPrepare(ptr noundef %0)
  %2 = getelementptr inbounds nuw i8, ptr %0, i64 56
  %3 = getelementptr inbounds nuw i8, ptr %0, i64 40
  %4 = getelementptr inbounds nuw i8, ptr %0, i64 124
  br label %.backedge

5:                                                ; preds = %.backedge
  %indvars.iv.next = add nuw nsw i64 %indvars.iv, 1
  %exitcond.not = icmp eq i64 %indvars.iv.next, 17
  br i1 %exitcond.not, label %.critedge.preheader, label %.backedge.backedge

.backedge.backedge:                               ; preds = %5, %.loopexit, %8
  %indvars.iv.be = phi i64 [ %indvars.iv.next, %5 ], [ 1, %.loopexit ], [ 1, %8 ]
  br label %.backedge, !llvm.loop !71

.backedge:                                        ; preds = %.backedge.backedge, %1
  %indvars.iv = phi i64 [ 1, %1 ], [ %indvars.iv.be, %.backedge.backedge ]
  %6 = getelementptr inbounds nuw [17 x i32], ptr %2, i64 0, i64 %indvars.iv
  %7 = load i32, ptr %6, align 4, !tbaa !42
  %.not = icmp eq i32 %7, 0
  br i1 %.not, label %5, label %8

8:                                                ; preds = %.backedge
  %9 = load ptr, ptr %3, align 8, !tbaa !27
  %10 = sext i32 %7 to i64
  %11 = getelementptr inbounds ptr, ptr %9, i64 %10
  %12 = load ptr, ptr %11, align 8, !tbaa !48
  %13 = getelementptr inbounds nuw i8, ptr %12, i64 16
  %14 = load i32, ptr %13, align 4, !tbaa !42
  %15 = sext i32 %14 to i64
  %16 = getelementptr inbounds ptr, ptr %9, i64 %15
  %17 = load ptr, ptr %16, align 8, !tbaa !48
  tail call void @Nwk_ManGraphUpdate(ptr noundef nonnull %0, ptr noundef %12, ptr noundef %17)
  br label %.backedge.backedge

.critedge.preheader:                              ; preds = %5, %.critedge
  %indvars.iv47 = phi i64 [ %indvars.iv.next48, %.critedge ], [ 2, %5 ]
  %18 = getelementptr inbounds nuw [17 x i32], ptr %4, i64 0, i64 %indvars.iv47
  %19 = load i32, ptr %18, align 4, !tbaa !42
  %.not30 = icmp eq i32 %19, 0
  br i1 %.not30, label %.critedge, label %20

20:                                               ; preds = %.critedge.preheader
  %21 = load ptr, ptr %3, align 8, !tbaa !27
  %22 = sext i32 %19 to i64
  %23 = getelementptr inbounds ptr, ptr %21, i64 %22
  %24 = load ptr, ptr %23, align 8, !tbaa !48
  %.not2935.i = icmp eq ptr %24, null
  br i1 %.not2935.i, label %Nwk_ManGraphListFindMin.exit, label %.preheader.i

.preheader.i:                                     ; preds = %20, %37
  %.039.i = phi i32 [ %.1.lcssa.i, %37 ], [ 1000000, %20 ]
  %.02038.i = phi i32 [ %32, %37 ], [ 10000, %20 ]
  %.02237.i = phi ptr [ %.224.lcssa.i, %37 ], [ null, %20 ]
  %.02536.i = phi ptr [ %40, %37 ], [ %24, %20 ]
  %25 = getelementptr inbounds nuw i8, ptr %.02536.i, i64 12
  %26 = load i32, ptr %25, align 4, !tbaa !53
  %27 = icmp sgt i32 %26, 0
  br i1 %27, label %.lr.ph.i, label %._crit_edge.i

.lr.ph.i:                                         ; preds = %.preheader.i
  %28 = getelementptr inbounds nuw i8, ptr %.02536.i, i64 16
  %wide.trip.count.i = zext nneg i32 %26 to i64
  br label %._crit_edge45.i

._crit_edge45.i:                                  ; preds = %._crit_edge45.i, %.lr.ph.i
  %indvars.iv.i = phi i64 [ 0, %.lr.ph.i ], [ %indvars.iv.next.i, %._crit_edge45.i ]
  %.133.i = phi i32 [ %.039.i, %.lr.ph.i ], [ %.2.i, %._crit_edge45.i ]
  %.22431.i = phi ptr [ %.02237.i, %.lr.ph.i ], [ %.3.i, %._crit_edge45.i ]
  %29 = icmp eq ptr %.22431.i, null
  %.phi.trans.insert.i = getelementptr inbounds nuw [0 x i32], ptr %28, i64 0, i64 %indvars.iv.i
  %.pre46.i = load i32, ptr %.phi.trans.insert.i, align 4, !tbaa !42
  %.phi.trans.insert47.i = sext i32 %.pre46.i to i64
  %.phi.trans.insert48.i = getelementptr inbounds ptr, ptr %21, i64 %.phi.trans.insert47.i
  %.pre49.i = load ptr, ptr %.phi.trans.insert48.i, align 8, !tbaa !48
  %.phi.trans.insert50.i = getelementptr inbounds nuw i8, ptr %.pre49.i, i64 12
  %.pre51.i = load i32, ptr %.phi.trans.insert50.i, align 4, !tbaa !53
  %30 = icmp sgt i32 %.133.i, %.pre51.i
  %spec.select55.i = tail call i32 @llvm.smin.i32(i32 %.133.i, i32 %.pre51.i)
  %31 = select i1 %29, i1 true, i1 %30
  %.3.i = select i1 %31, ptr %.02536.i, ptr %.22431.i
  %.2.i = select i1 %29, i32 %.pre51.i, i32 %spec.select55.i
  %indvars.iv.next.i = add nuw nsw i64 %indvars.iv.i, 1
  %exitcond.not.i = icmp eq i64 %indvars.iv.next.i, %wide.trip.count.i
  br i1 %exitcond.not.i, label %._crit_edge.i, label %._crit_edge45.i, !llvm.loop !69

._crit_edge.i:                                    ; preds = %._crit_edge45.i, %.preheader.i
  %.224.lcssa.i = phi ptr [ %.02237.i, %.preheader.i ], [ %.3.i, %._crit_edge45.i ]
  %.1.lcssa.i = phi i32 [ %.039.i, %.preheader.i ], [ %.2.i, %._crit_edge45.i ]
  %32 = add nsw i32 %.02038.i, -1
  %33 = icmp eq i32 %32, 0
  br i1 %33, label %Nwk_ManGraphListFindMin.exit, label %34

34:                                               ; preds = %._crit_edge.i
  %35 = getelementptr inbounds nuw i8, ptr %.02536.i, i64 8
  %36 = load i32, ptr %35, align 4, !tbaa !57
  %.not30.i = icmp eq i32 %36, 0
  br i1 %.not30.i, label %Nwk_ManGraphListFindMin.exit, label %37

37:                                               ; preds = %34
  %38 = sext i32 %36 to i64
  %39 = getelementptr inbounds ptr, ptr %21, i64 %38
  %40 = load ptr, ptr %39, align 8, !tbaa !48
  %.not29.i = icmp eq ptr %40, null
  br i1 %.not29.i, label %Nwk_ManGraphListFindMin.exit, label %.preheader.i, !llvm.loop !70

Nwk_ManGraphListFindMin.exit:                     ; preds = %._crit_edge.i, %34, %37, %20
  %.123.i = phi ptr [ null, %20 ], [ %.224.lcssa.i, %37 ], [ %.224.lcssa.i, %34 ], [ %.224.lcssa.i, %._crit_edge.i ]
  %41 = getelementptr inbounds nuw i8, ptr %.123.i, i64 12
  %42 = load i32, ptr %41, align 4, !tbaa !53
  %43 = icmp sgt i32 %42, 0
  br i1 %43, label %.lr.ph.i31, label %.loopexit

.lr.ph.i31:                                       ; preds = %Nwk_ManGraphListFindMin.exit
  %44 = getelementptr inbounds nuw i8, ptr %.123.i, i64 16
  %wide.trip.count.i32 = zext nneg i32 %42 to i64
  br label %45

45:                                               ; preds = %59, %.lr.ph.i31
  %indvars.iv.i33 = phi i64 [ 0, %.lr.ph.i31 ], [ %indvars.iv.next.i34, %59 ]
  %.01011.i = phi ptr [ null, %.lr.ph.i31 ], [ %.1.i, %59 ]
  %46 = getelementptr inbounds nuw [0 x i32], ptr %44, i64 0, i64 %indvars.iv.i33
  %47 = load i32, ptr %46, align 4, !tbaa !42
  %48 = sext i32 %47 to i64
  %49 = getelementptr inbounds ptr, ptr %21, i64 %48
  %50 = load ptr, ptr %49, align 8, !tbaa !48
  %51 = icmp eq ptr %.01011.i, null
  br i1 %51, label %58, label %52

52:                                               ; preds = %45
  %53 = getelementptr inbounds nuw i8, ptr %.01011.i, i64 12
  %54 = load i32, ptr %53, align 4, !tbaa !53
  %55 = getelementptr inbounds nuw i8, ptr %50, i64 12
  %56 = load i32, ptr %55, align 4, !tbaa !53
  %57 = icmp sgt i32 %54, %56
  br i1 %57, label %58, label %59

58:                                               ; preds = %52, %45
  br label %59

59:                                               ; preds = %58, %52
  %.1.i = phi ptr [ %50, %58 ], [ %.01011.i, %52 ]
  %indvars.iv.next.i34 = add nuw nsw i64 %indvars.iv.i33, 1
  %exitcond.not.i35 = icmp eq i64 %indvars.iv.next.i34, %wide.trip.count.i32
  br i1 %exitcond.not.i35, label %.loopexit, label %45, !llvm.loop !68

.critedge:                                        ; preds = %.critedge.preheader
  %indvars.iv.next48 = add nuw nsw i64 %indvars.iv47, 1
  %exitcond50.not = icmp eq i64 %indvars.iv.next48, 17
  br i1 %exitcond50.not, label %.loopexit.thread, label %.critedge.preheader, !llvm.loop !72

.loopexit:                                        ; preds = %59, %Nwk_ManGraphListFindMin.exit
  %.010.lcssa.i = phi ptr [ null, %Nwk_ManGraphListFindMin.exit ], [ %.1.i, %59 ]
  tail call void @Nwk_ManGraphUpdate(ptr noundef %0, ptr noundef nonnull %.123.i, ptr noundef %.010.lcssa.i)
  %60 = icmp eq i64 %indvars.iv47, 17
  br i1 %60, label %.loopexit.thread, label %.backedge.backedge

.loopexit.thread:                                 ; preds = %.loopexit, %.critedge
  tail call void @Nwk_ManGraphSortPairs(ptr noundef %0)
  ret void
}